target datalayout = "e-m:e-p270:32:32-p271:32:32-p272:64:64-i64:64-i128:128-f80:128-n8:16:32:64-S128"
target triple = "x86_64-pc-linux-gnu"

; Function Attrs: nounwind uwtable
define internal void @decode_ham_plane32(ptr noundef %0, ptr noundef %1, ptr noundef %2, i32 noundef %3) #1 {
  %5 = alloca ptr, align 8
  %6 = alloca ptr, align 8
  %7 = alloca ptr, align 8
  %8 = alloca i32, align 4
  %9 = alloca i32, align 4
  %10 = alloca i32, align 4
  %11 = alloca i32, align 4
  store ptr %0, ptr %5, align 8, !tbaa !49
  store ptr %1, ptr %6, align 8, !tbaa !45
  store ptr %2, ptr %7, align 8, !tbaa !49
  store i32 %3, ptr %8, align 4, !tbaa !35
  call void @llvm.lifetime.start.p0(i64 4, ptr %9) #9
  %12 = load ptr, ptr %7, align 8, !tbaa !49
  %13 = getelementptr inbounds i32, ptr %12, i64 1
  %14 = load i32, ptr %13, align 4, !tbaa !35
  store i32 %14, ptr %9, align 4, !tbaa !35
  br label %15

15:                                               ; preds = %204, %4
  call void @llvm.lifetime.start.p0(i64 4, ptr %10) #9
  call void @llvm.lifetime.start.p0(i64 4, ptr %11) #9
  %16 = load ptr, ptr %6, align 8, !tbaa !45
  %17 = getelementptr inbounds i8, ptr %16, i64 0
  %18 = load i8, ptr %17, align 1, !tbaa !34
  %19 = zext i8 %18 to i32
  %20 = shl i32 %19, 1
  store i32 %20, ptr %10, align 4, !tbaa !35
  %21 = load ptr, ptr %6, align 8, !tbaa !45
  %22 = getelementptr inbounds i8, ptr %21, i64 1
  %23 = load i8, ptr %22, align 1, !tbaa !34
  %24 = zext i8 %23 to i32
  %25 = shl i32 %24, 1
  store i32 %25, ptr %11, align 4, !tbaa !35
  %26 = load ptr, ptr %7, align 8, !tbaa !49
  %27 = load i32, ptr %10, align 4, !tbaa !35
  %28 = add i32 %27, 1
  store i32 %28, ptr %10, align 4, !tbaa !35
  %29 = zext i32 %27 to i64
  %30 = getelementptr inbounds nuw i32, ptr %26, i64 %29
  %31 = load i32, ptr %30, align 4, !tbaa !35
  %32 = load i32, ptr %9, align 4, !tbaa !35
  %33 = and i32 %32, %31
  store i32 %33, ptr %9, align 4, !tbaa !35
  %34 = load ptr, ptr %7, align 8, !tbaa !49
  %35 = load i32, ptr %10, align 4, !tbaa !35
  %36 = zext i32 %35 to i64
  %37 = getelementptr inbounds nuw i32, ptr %34, i64 %36
  %38 = load i32, ptr %37, align 4, !tbaa !35
  %39 = load i32, ptr %9, align 4, !tbaa !35
  %40 = or i32 %39, %38
  store i32 %40, ptr %9, align 4, !tbaa !35
  %41 = load i32, ptr %9, align 4, !tbaa !35
  %42 = load ptr, ptr %5, align 8, !tbaa !49
  %43 = getelementptr inbounds i32, ptr %42, i64 0
  store i32 %41, ptr %43, align 4, !tbaa !35
  %44 = load ptr, ptr %7, align 8, !tbaa !49
  %45 = load i32, ptr %11, align 4, !tbaa !35
  %46 = add i32 %45, 1
  store i32 %46, ptr %11, align 4, !tbaa !35
  %47 = zext i32 %45 to i64
  %48 = getelementptr inbounds nuw i32, ptr %44, i64 %47
  %49 = load i32, ptr %48, align 4, !tbaa !35
  %50 = load i32, ptr %9, align 4, !tbaa !35
  %51 = and i32 %50, %49
  store i32 %51, ptr %9, align 4, !tbaa !35
  %52 = load ptr, ptr %7, align 8, !tbaa !49
  %53 = load i32, ptr %11, align 4, !tbaa !35
  %54 = zext i32 %53 to i64
  %55 = getelementptr inbounds nuw i32, ptr %52, i64 %54
  %56 = load i32, ptr %55, align 4, !tbaa !35
  %57 = load i32, ptr %9, align 4, !tbaa !35
  %58 = or i32 %57, %56
  store i32 %58, ptr %9, align 4, !tbaa !35
  %59 = load i32, ptr %9, align 4, !tbaa !35
  %60 = load ptr, ptr %5, align 8, !tbaa !49
  %61 = getelementptr inbounds i32, ptr %60, i64 1
  store i32 %59, ptr %61, align 4, !tbaa !35
  %62 = load ptr, ptr %6, align 8, !tbaa !45
  %63 = getelementptr inbounds i8, ptr %62, i64 2
  %64 = load i8, ptr %63, align 1, !tbaa !34
  %65 = zext i8 %64 to i32
  %66 = shl i32 %65, 1
  store i32 %66, ptr %10, align 4, !tbaa !35
  %67 = load ptr, ptr %6, align 8, !tbaa !45
  %68 = getelementptr inbounds i8, ptr %67, i64 3
  %69 = load i8, ptr %68, align 1, !tbaa !34
  %70 = zext i8 %69 to i32
  %71 = shl i32 %70, 1
  store i32 %71, ptr %11, align 4, !tbaa !35
  %72 = load ptr, ptr %7, align 8, !tbaa !49
  %73 = load i32, ptr %10, align 4, !tbaa !35
  %74 = add i32 %73, 1
  store i32 %74, ptr %10, align 4, !tbaa !35
  %75 = zext i32 %73 to i64
  %76 = getelementptr inbounds nuw i32, ptr %72, i64 %75
  %77 = load i32, ptr %76, align 4, !tbaa !35
  %78 = load i32, ptr %9, align 4, !tbaa !35
  %79 = and i32 %78, %77
  store i32 %79, ptr %9, align 4, !tbaa !35
  %80 = load ptr, ptr %7, align 8, !tbaa !49
  %81 = load i32, ptr %10, align 4, !tbaa !35
  %82 = zext i32 %81 to i64
  %83 = getelementptr inbounds nuw i32, ptr %80, i64 %82
  %84 = load i32, ptr %83, align 4, !tbaa !35
  %85 = load i32, ptr %9, align 4, !tbaa !35
  %86 = or i32 %85, %84
  store i32 %86, ptr %9, align 4, !tbaa !35
  %87 = load i32, ptr %9, align 4, !tbaa !35
  %88 = load ptr, ptr %5, align 8, !tbaa !49
  %89 = getelementptr inbounds i32, ptr %88, i64 2
  store i32 %87, ptr %89, align 4, !tbaa !35
  %90 = load ptr, ptr %7, align 8, !tbaa !49
  %91 = load i32, ptr %11, align 4, !tbaa !35
  %92 = add i32 %91, 1
  store i32 %92, ptr %11, align 4, !tbaa !35
  %93 = zext i32 %91 to i64
  %94 = getelementptr inbounds nuw i32, ptr %90, i64 %93
  %95 = load i32, ptr %94, align 4, !tbaa !35
  %96 = load i32, ptr %9, align 4, !tbaa !35
  %97 = and i32 %96, %95
  store i32 %97, ptr %9, align 4, !tbaa !35
  %98 = load ptr, ptr %7, align 8, !tbaa !49
  %99 = load i32, ptr %11, align 4, !tbaa !35
  %100 = zext i32 %99 to i64
  %101 = getelementptr inbounds nuw i32, ptr %98, i64 %100
  %102 = load i32, ptr %101, align 4, !tbaa !35
  %103 = load i32, ptr %9, align 4, !tbaa !35
  %104 = or i32 %103, %102
  store i32 %104, ptr %9, align 4, !tbaa !35
  %105 = load i32, ptr %9, align 4, !tbaa !35
  %106 = load ptr, ptr %5, align 8, !tbaa !49
  %107 = getelementptr inbounds i32, ptr %106, i64 3
  store i32 %105, ptr %107, align 4, !tbaa !35
  %108 = load ptr, ptr %6, align 8, !tbaa !45
  %109 = getelementptr inbounds i8, ptr %108, i64 4
  %110 = load i8, ptr %109, align 1, !tbaa !34
  %111 = zext i8 %110 to i32
  %112 = shl i32 %111, 1
  store i32 %112, ptr %10, align 4, !tbaa !35
  %113 = load ptr, ptr %6, align 8, !tbaa !45
  %114 = getelementptr inbounds i8, ptr %113, i64 5
  %115 = load i8, ptr %114, align 1, !tbaa !34
  %116 = zext i8 %115 to i32
  %117 = shl i32 %116, 1
  store i32 %117, ptr %11, align 4, !tbaa !35
  %118 = load ptr, ptr %7, align 8, !tbaa !49
  %119 = load i32, ptr %10, align 4, !tbaa !35
  %120 = add i32 %119, 1
  store i32 %120, ptr %10, align 4, !tbaa !35
  %121 = zext i32 %119 to i64
  %122 = getelementptr inbounds nuw i32, ptr %118, i64 %121
  %123 = load i32, ptr %122, align 4, !tbaa !35
  %124 = load i32, ptr %9, align 4, !tbaa !35
  %125 = and i32 %124, %123
  store i32 %125, ptr %9, align 4, !tbaa !35
  %126 = load ptr, ptr %7, align 8, !tbaa !49
  %127 = load i32, ptr %10, align 4, !tbaa !35
  %128 = zext i32 %127 to i64
  %129 = getelementptr inbounds nuw i32, ptr %126, i64 %128
  %130 = load i32, ptr %129, align 4, !tbaa !35
  %131 = load i32, ptr %9, align 4, !tbaa !35
  %132 = or i32 %131, %130
  store i32 %132, ptr %9, align 4, !tbaa !35
  %133 = load i32, ptr %9, align 4, !tbaa !35
  %134 = load ptr, ptr %5, align 8, !tbaa !49
  %135 = getelementptr inbounds i32, ptr %134, i64 4
  store i32 %133, ptr %135, align 4, !tbaa !35
  %136 = load ptr, ptr %7, align 8, !tbaa !49
  %137 = load i32, ptr %11, align 4, !tbaa !35
  %138 = add i32 %137, 1
  store i32 %138, ptr %11, align 4, !tbaa !35
  %139 = zext i32 %137 to i64
  %140 = getelementptr inbounds nuw i32, ptr %136, i64 %139
  %141 = load i32, ptr %140, align 4, !tbaa !35
  %142 = load i32, ptr %9, align 4, !tbaa !35
  %143 = and i32 %142, %141
  store i32 %143, ptr %9, align 4, !tbaa !35
  %144 = load ptr, ptr %7, align 8, !tbaa !49
  %145 = load i32, ptr %11, align 4, !tbaa !35
  %146 = zext i32 %145 to i64
  %147 = getelementptr inbounds nuw i32, ptr %144, i64 %146
  %148 = load i32, ptr %147, align 4, !tbaa !35
  %149 = load i32, ptr %9, align 4, !tbaa !35
  %150 = or i32 %149, %148
  store i32 %150, ptr %9, align 4, !tbaa !35
  %151 = load i32, ptr %9, align 4, !tbaa !35
  %152 = load ptr, ptr %5, align 8, !tbaa !49
  %153 = getelementptr inbounds i32, ptr %152, i64 5
  store i32 %151, ptr %153, align 4, !tbaa !35
  %154 = load ptr, ptr %6, align 8, !tbaa !45
  %155 = getelementptr inbounds i8, ptr %154, i64 6
  %156 = load i8, ptr %155, align 1, !tbaa !34
  %157 = zext i8 %156 to i32
  %158 = shl i32 %157, 1
  store i32 %158, ptr %10, align 4, !tbaa !35
  %159 = load ptr, ptr %6, align 8, !tbaa !45
  %160 = getelementptr inbounds i8, ptr %159, i64 7
  %161 = load i8, ptr %160, align 1, !tbaa !34
  %162 = zext i8 %161 to i32
  %163 = shl i32 %162, 1
  store i32 %163, ptr %11, align 4, !tbaa !35
  %164 = load ptr, ptr %7, align 8, !tbaa !49
  %165 = load i32, ptr %10, align 4, !tbaa !35
  %166 = add i32 %165, 1
  store i32 %166, ptr %10, align 4, !tbaa !35
  %167 = zext i32 %165 to i64
  %168 = getelementptr inbounds nuw i32, ptr %164, i64 %167
  %169 = load i32, ptr %168, align 4, !tbaa !35
  %170 = load i32, ptr %9, align 4, !tbaa !35
  %171 = and i32 %170, %169
  store i32 %171, ptr %9, align 4, !tbaa !35
  %172 = load ptr, ptr %7, align 8, !tbaa !49
  %173 = load i32, ptr %10, align 4, !tbaa !35
  %174 = zext i32 %173 to i64
  %175 = getelementptr inbounds nuw i32, ptr %172, i64 %174
  %176 = load i32, ptr %175, align 4, !tbaa !35
  %177 = load i32, ptr %9, align 4, !tbaa !35
  %178 = or i32 %177, %176
  store i32 %178, ptr %9, align 4, !tbaa !35
  %179 = load i32, ptr %9, align 4, !tbaa !35
  %180 = load ptr, ptr %5, align 8, !tbaa !49
  %181 = getelementptr inbounds i32, ptr %180, i64 6
  store i32 %179, ptr %181, align 4, !tbaa !35
  %182 = load ptr, ptr %7, align 8, !tbaa !49
  %183 = load i32, ptr %11, align 4, !tbaa !35
  %184 = add i32 %183, 1
  store i32 %184, ptr %11, align 4, !tbaa !35
  %185 = zext i32 %183 to i64
  %186 = getelementptr inbounds nuw i32, ptr %182, i64 %185
  %187 = load i32, ptr %186, align 4, !tbaa !35
  %188 = load i32, ptr %9, align 4, !tbaa !35
  %189 = and i32 %188, %187
  store i32 %189, ptr %9, align 4, !tbaa !35
  %190 = load ptr, ptr %7, align 8, !tbaa !49
  %191 = load i32, ptr %11, align 4, !tbaa !35
  %192 = zext i32 %191 to i64
  %193 = getelementptr inbounds nuw i32, ptr %190, i64 %192
  %194 = load i32, ptr %193, align 4, !tbaa !35
  %195 = load i32, ptr %9, align 4, !tbaa !35
  %196 = or i32 %195, %194
  store i32 %196, ptr %9, align 4, !tbaa !35
  %197 = load i32, ptr %9, align 4, !tbaa !35
  %198 = load ptr, ptr %5, align 8, !tbaa !49
  %199 = getelementptr inbounds i32, ptr %198, i64 7
  store i32 %197, ptr %199, align 4, !tbaa !35
  %200 = load ptr, ptr %6, align 8, !tbaa !45
  %201 = getelementptr inbounds i8, ptr %200, i64 8
  store ptr %201, ptr %6, align 8, !tbaa !45
  %202 = load ptr, ptr %5, align 8, !tbaa !49
  %203 = getelementptr inbounds i32, ptr %202, i64 8
  store ptr %203, ptr %5, align 8, !tbaa !49
  call void @llvm.lifetime.end.p0(i64 4, ptr %11) #9
  call void @llvm.lifetime.end.p0(i64 4, ptr %10) #9
  br label %204

204:                                              ; preds = %15
  %205 = load i32, ptr %8, align 4, !tbaa !35
  %206 = add i32 %205, -1
  store i32 %206, ptr %8, align 4, !tbaa !35
  %207 = icmp ne i32 %206, 0
  br i1 %207, label %15, label %208, !llvm.loop !140

208:                                              ; preds = %204
  call void @llvm.lifetime.end.p0(i64 4, ptr %9) #9
  ret void
}