; Function Attrs: nofree norecurse nosync nounwind memory(argmem: readwrite) uwtable
define internal fastcc void @decode_ham_plane32(ptr noundef writeonly captures(none) %0, ptr noundef readonly captures(none) %1, ptr noundef readonly captures(none) %2, i32 noundef %3) unnamed_addr #6 {
  %5 = getelementptr inbounds nuw i8, ptr %2, i64 4
  %6 = load i32, ptr %5, align 4, !tbaa !55
  br label %7

7:                                                ; preds = %7, %4
  %.077 = phi i32 [ %3, %4 ], [ %88, %7 ]
  %.076 = phi i32 [ %6, %4 ], [ %84, %7 ]
  %.075 = phi ptr [ %1, %4 ], [ %86, %7 ]
  %.0 = phi ptr [ %0, %4 ], [ %87, %7 ]
  %8 = load i8, ptr %.075, align 1, !tbaa !30
  %9 = zext i8 %8 to i64
  %10 = getelementptr inbounds nuw i8, ptr %.075, i64 1
  %11 = load i8, ptr %10, align 1, !tbaa !30
  %12 = zext i8 %11 to i64
  %.idx = shl nuw nsw i64 %9, 3
  %13 = getelementptr inbounds nuw i8, ptr %2, i64 %.idx
  %14 = load i32, ptr %13, align 4, !tbaa !55
  %15 = and i32 %14, %.076
  %16 = getelementptr inbounds nuw i8, ptr %13, i64 4
  %17 = load i32, ptr %16, align 4, !tbaa !55
  %18 = or i32 %15, %17
  store i32 %18, ptr %.0, align 4, !tbaa !55
  %.idx78 = shl nuw nsw i64 %12, 3
  %19 = getelementptr inbounds nuw i8, ptr %2, i64 %.idx78
  %20 = load i32, ptr %19, align 4, !tbaa !55
  %21 = and i32 %20, %18
  %22 = getelementptr inbounds nuw i8, ptr %19, i64 4
  %23 = load i32, ptr %22, align 4, !tbaa !55
  %24 = or i32 %21, %23
  %25 = getelementptr inbounds nuw i8, ptr %.0, i64 4
  store i32 %24, ptr %25, align 4, !tbaa !55
  %26 = getelementptr inbounds nuw i8, ptr %.075, i64 2
  %27 = load i8, ptr %26, align 1, !tbaa !30
  %28 = zext i8 %27 to i64
  %29 = getelementptr inbounds nuw i8, ptr %.075, i64 3
  %30 = load i8, ptr %29, align 1, !tbaa !30
  %31 = zext i8 %30 to i64
  %.idx79 = shl nuw nsw i64 %28, 3
  %32 = getelementptr inbounds nuw i8, ptr %2, i64 %.idx79
  %33 = load i32, ptr %32, align 4, !tbaa !55
  %34 = and i32 %33, %24
  %35 = getelementptr inbounds nuw i8, ptr %32, i64 4
  %36 = load i32, ptr %35, align 4, !tbaa !55
  %37 = or i32 %34, %36
  %38 = getelementptr inbounds nuw i8, ptr %.0, i64 8
  store i32 %37, ptr %38, align 4, !tbaa !55
  %.idx80 = shl nuw nsw i64 %31, 3
  %39 = getelementptr inbounds nuw i8, ptr %2, i64 %.idx80
  %40 = load i32, ptr %39, align 4, !tbaa !55
  %41 = and i32 %40, %37
  %42 = getelementptr inbounds nuw i8, ptr %39, i64 4
  %43 = load i32, ptr %42, align 4, !tbaa !55
  %44 = or i32 %41, %43
  %45 = getelementptr inbounds nuw i8, ptr %.0, i64 12
  store i32 %44, ptr %45, align 4, !tbaa !55
  %46 = getelementptr inbounds nuw i8, ptr %.075, i64 4
  %47 = load i8, ptr %46, align 1, !tbaa !30
  %48 = zext i8 %47 to i64
  %49 = getelementptr inbounds nuw i8, ptr %.075, i64 5
  %50 = load i8, ptr %49, align 1, !tbaa !30
  %51 = zext i8 %50 to i64
  %.idx81 = shl nuw nsw i64 %48, 3
  %52 = getelementptr inbounds nuw i8, ptr %2, i64 %.idx81
  %53 = load i32, ptr %52, align 4, !tbaa !55
  %54 = and i32 %53, %44
  %55 = getelementptr inbounds nuw i8, ptr %52, i64 4
  %56 = load i32, ptr %55, align 4, !tbaa !55
  %57 = or i32 %54, %56
  %58 = getelementptr inbounds nuw i8, ptr %.0, i64 16
  store i32 %57, ptr %58, align 4, !tbaa !55
  %.idx82 = shl nuw nsw i64 %51, 3
  %59 = getelementptr inbounds nuw i8, ptr %2, i64 %.idx82
  %60 = load i32, ptr %59, align 4, !tbaa !55
  %61 = and i32 %60, %57
  %62 = getelementptr inbounds nuw i8, ptr %59, i64 4
  %63 = load i32, ptr %62, align 4, !tbaa !55
  %64 = or i32 %61, %63
  %65 = getelementptr inbounds nuw i8, ptr %.0, i64 20
  store i32 %64, ptr %65, align 4, !tbaa !55
  %66 = getelementptr inbounds nuw i8, ptr %.075, i64 6
  %67 = load i8, ptr %66, align 1, !tbaa !30
  %68 = zext i8 %67 to i64
  %69 = getelementptr inbounds nuw i8, ptr %.075, i64 7
  %70 = load i8, ptr %69, align 1, !tbaa !30
  %71 = zext i8 %70 to i64
  %.idx83 = shl nuw nsw i64 %68, 3
  %72 = getelementptr inbounds nuw i8, ptr %2, i64 %.idx83
  %73 = load i32, ptr %72, align 4, !tbaa !55
  %74 = and i32 %73, %64
  %75 = getelementptr inbounds nuw i8, ptr %72, i64 4
  %76 = load i32, ptr %75, align 4, !tbaa !55
  %77 = or i32 %74, %76
  %78 = getelementptr inbounds nuw i8, ptr %.0, i64 24
  store i32 %77, ptr %78, align 4, !tbaa !55
  %.idx84 = shl nuw nsw i64 %71, 3
  %79 = getelementptr inbounds nuw i8, ptr %2, i64 %.idx84
  %80 = load i32, ptr %79, align 4, !tbaa !55
  %81 = and i32 %80, %77
  %82 = getelementptr inbounds nuw i8, ptr %79, i64 4
  %83 = load i32, ptr %82, align 4, !tbaa !55
  %84 = or i32 %81, %83
  %85 = getelementptr inbounds nuw i8, ptr %.0, i64 28
  store i32 %84, ptr %85, align 4, !tbaa !55
  %86 = getelementptr inbounds nuw i8, ptr %.075, i64 8
  %87 = getelementptr inbounds nuw i8, ptr %.0, i64 32
  %88 = add i32 %.077, -1
  %.not = icmp eq i32 %88, 0
  br i1 %.not, label %89, label %7, !llvm.loop !160

89:                                               ; preds = %7
  ret void
}